target datalayout = "e-m:e-p270:32:32-p271:32:32-p272:64:64-i64:64-i128:128-f80:128-n8:16:32:64-S128"
target triple = "x86_64-pc-linux-gnu"

%struct._lv_spinbox_t = type { %struct._lv_textarea_t, i32, i32, i32, i32, i16 }
%struct._lv_textarea_t = type { %struct._lv_obj_t, ptr, ptr, ptr, ptr, ptr, i32, i32, %struct.anon, i32, i32, i8 }
%struct._lv_obj_t = type { ptr, ptr, ptr, ptr, ptr, %struct.lv_area_t, i32, i16, i16 }
%struct.lv_area_t = type { i32, i32, i32, i32 }
%struct.anon = type { i32, i32, %struct.lv_area_t, i32, i8 }

; Function Attrs: nounwind uwtable
define void @lv_spinbox_set_digit_step_direction(ptr noundef %0, i32 noundef %1) #0 {
  %3 = alloca ptr, align 8
  %4 = alloca i32, align 4
  %5 = alloca ptr, align 8
  store ptr %0, ptr %3, align 8, !tbaa !3
  store i32 %1, ptr %4, align 4, !tbaa !18
  br label %6

6:                                                ; preds = %2
  br label %7

7:                                                ; preds = %6
  call void @llvm.lifetime.start.p0(i64 8, ptr %5) #4
  %8 = load ptr, ptr %3, align 8, !tbaa !3
  store ptr %8, ptr %5, align 8, !tbaa !3
  %9 = load i32, ptr %4, align 4, !tbaa !18
  %10 = load ptr, ptr %5, align 8, !tbaa !3
  %11 = getelementptr inbounds nuw %struct._lv_spinbox_t, ptr %10, i32 0, i32 5
  %12 = trunc i32 %9 to i16
  %13 = load i16, ptr %11, align 8
  %14 = and i16 %12, 3
  %15 = shl i16 %14, 9
  %16 = and i16 %13, -1537
  %17 = or i16 %16, %15
  store i16 %17, ptr %11, align 8
  %18 = load ptr, ptr %3, align 8, !tbaa !3
  call void @lv_spinbox_updatevalue(ptr noundef %18)
  call void @llvm.lifetime.end.p0(i64 8, ptr %5) #4
  ret void
}