; Function Attrs: nounwind uwtable
define void @lv_spinbox_set_digit_step_direction(ptr noundef %0, i32 noundef %1) local_unnamed_addr #0 {
  %3 = getelementptr inbounds nuw i8, ptr %0, i64 176
  %4 = trunc i32 %1 to i16
  %5 = load i16, ptr %3, align 8
  %6 = shl i16 %4, 9
  %7 = and i16 %6, 1536
  %8 = and i16 %5, -1537
  %9 = or disjoint i16 %8, %7
  store i16 %9, ptr %3, align 8
  tail call fastcc void @lv_spinbox_updatevalue(ptr noundef %0)
  ret void
}